; Function Attrs: nounwind uwtable
define ptr @lv_obj_style_apply_color_filter(ptr noundef readonly captures(address_is_null) %0, i32 noundef %1, ptr %2) local_unnamed_addr #0 {
  %4 = alloca %union.lv_style_value_t, align 8
  %5 = alloca %union.lv_style_value_t, align 8
  %6 = icmp eq ptr %0, null
  br i1 %6, label %56, label %7

7:                                                ; preds = %3
  %8 = getelementptr inbounds nuw i8, ptr %0, i64 60
  %9 = load i16, ptr %8, align 4, !tbaa !62
  %10 = zext i16 %9 to i32
  %11 = or i32 %1, %10
  call void @llvm.lifetime.start.p0(i64 8, ptr nonnull %5) #9
  store i64 0, ptr %5, align 8
  %12 = and i32 %1, 16711680
  %13 = call fastcc i32 @get_prop_core(ptr noundef nonnull readonly %0, i32 noundef %11, i8 noundef zeroext 97, ptr noundef nonnull %5)
  %.not54.i.i = icmp eq i32 %13, 0
  br i1 %.not54.i.i, label %14, label %get_selector_style_prop.exit.i

14:                                               ; preds = %7
  %.037.in.i.i = load i8, ptr getelementptr inbounds nuw (i8, ptr @lv_style_builtin_prop_flag_lookup_table, i64 97), align 1, !tbaa !37
  %15 = trunc i8 %.037.in.i.i to i1
  br i1 %15, label %16, label %.thread.i.i

16:                                               ; preds = %14
  %.not51.i.i = icmp eq i32 %12, 0
  br i1 %.not51.i.i, label %17, label %.lr.ph63.i.i.preheader

17:                                               ; preds = %16
  %18 = getelementptr inbounds nuw i8, ptr %0, i64 8
  %19 = load ptr, ptr %18, align 8, !tbaa !63
  %.not5261.i.i = icmp eq ptr %19, null
  br i1 %.not5261.i.i, label %.thread.i.i, label %.lr.ph63.i.i.preheader

.lr.ph63.i.i.preheader:                           ; preds = %17, %16
  %.14262.i.i.ph = phi ptr [ %0, %16 ], [ %19, %17 ]
  br label %.lr.ph63.i.i

.lr.ph63.i.i:                                     ; preds = %.lr.ph63.i.i.preheader, %24
  %.14262.i.i = phi ptr [ %26, %24 ], [ %.14262.i.i.ph, %.lr.ph63.i.i.preheader ]
  %20 = getelementptr inbounds nuw i8, ptr %.14262.i.i, i64 60
  %21 = load i16, ptr %20, align 4, !tbaa !62
  %22 = zext i16 %21 to i32
  %23 = call fastcc i32 @get_prop_core(ptr noundef %.14262.i.i, i32 noundef %22, i8 noundef zeroext 97, ptr noundef nonnull %5)
  %.not55.i.i = icmp eq i32 %23, 0
  br i1 %.not55.i.i, label %24, label %get_selector_style_prop.exit.i

24:                                               ; preds = %.lr.ph63.i.i
  %25 = getelementptr inbounds nuw i8, ptr %.14262.i.i, i64 8
  %26 = load ptr, ptr %25, align 8, !tbaa !63
  %.not52.i.i = icmp eq ptr %26, null
  br i1 %.not52.i.i, label %.thread.i.i, label %.lr.ph63.i.i, !llvm.loop !64

get_selector_style_prop.exit.i:                   ; preds = %.lr.ph63.i.i, %7
  %.sroa.0.0.copyload.i.i = load ptr, ptr %5, align 8, !tbaa !37
  br label %lv_obj_get_style_color_filter_dsc.exit

.thread.i.i:                                      ; preds = %24, %17, %14
  %27 = tail call ptr @lv_style_prop_get_default(i8 noundef zeroext 97) #9
  br label %lv_obj_get_style_color_filter_dsc.exit

lv_obj_get_style_color_filter_dsc.exit:           ; preds = %get_selector_style_prop.exit.i, %.thread.i.i
  %.sroa.0.0.i.i = phi ptr [ %.sroa.0.0.copyload.i.i, %get_selector_style_prop.exit.i ], [ %27, %.thread.i.i ]
  call void @llvm.lifetime.end.p0(i64 8, ptr nonnull %5) #9
  %.not = icmp eq ptr %.sroa.0.0.i.i, null
  br i1 %.not, label %56, label %28

28:                                               ; preds = %lv_obj_get_style_color_filter_dsc.exit
  %29 = load ptr, ptr %.sroa.0.0.i.i, align 8, !tbaa !111
  %.not15 = icmp eq ptr %29, null
  br i1 %.not15, label %56, label %30

30:                                               ; preds = %28
  %31 = load i16, ptr %8, align 4, !tbaa !62
  %32 = zext i16 %31 to i32
  %33 = or i32 %1, %32
  call void @llvm.lifetime.start.p0(i64 8, ptr nonnull %4) #9
  store i64 0, ptr %4, align 8
  %34 = call fastcc i32 @get_prop_core(ptr noundef nonnull readonly %0, i32 noundef %33, i8 noundef zeroext 98, ptr noundef nonnull %4)
  %.not54.i.i17 = icmp eq i32 %34, 0
  br i1 %.not54.i.i17, label %35, label %get_selector_style_prop.exit.i18

35:                                               ; preds = %30
  %.037.in.i.i21 = load i8, ptr getelementptr inbounds nuw (i8, ptr @lv_style_builtin_prop_flag_lookup_table, i64 98), align 1, !tbaa !37
  %36 = trunc i8 %.037.in.i.i21 to i1
  br i1 %36, label %37, label %.thread.i.i22

37:                                               ; preds = %35
  %.not51.i.i23 = icmp eq i32 %12, 0
  br i1 %.not51.i.i23, label %38, label %.lr.ph63.i.i26.preheader

38:                                               ; preds = %37
  %39 = getelementptr inbounds nuw i8, ptr %0, i64 8
  %40 = load ptr, ptr %39, align 8, !tbaa !63
  %.not5261.i.i30 = icmp eq ptr %40, null
  br i1 %.not5261.i.i30, label %.thread.i.i22, label %.lr.ph63.i.i26.preheader

.lr.ph63.i.i26.preheader:                         ; preds = %38, %37
  %.14262.i.i27.ph = phi ptr [ %0, %37 ], [ %40, %38 ]
  br label %.lr.ph63.i.i26

.lr.ph63.i.i26:                                   ; preds = %.lr.ph63.i.i26.preheader, %45
  %.14262.i.i27 = phi ptr [ %47, %45 ], [ %.14262.i.i27.ph, %.lr.ph63.i.i26.preheader ]
  %41 = getelementptr inbounds nuw i8, ptr %.14262.i.i27, i64 60
  %42 = load i16, ptr %41, align 4, !tbaa !62
  %43 = zext i16 %42 to i32
  %44 = call fastcc i32 @get_prop_core(ptr noundef %.14262.i.i27, i32 noundef %43, i8 noundef zeroext 98, ptr noundef nonnull %4)
  %.not55.i.i28 = icmp eq i32 %44, 0
  br i1 %.not55.i.i28, label %45, label %get_selector_style_prop.exit.i18

45:                                               ; preds = %.lr.ph63.i.i26
  %46 = getelementptr inbounds nuw i8, ptr %.14262.i.i27, i64 8
  %47 = load ptr, ptr %46, align 8, !tbaa !63
  %.not52.i.i29 = icmp eq ptr %47, null
  br i1 %.not52.i.i29, label %.thread.i.i22, label %.lr.ph63.i.i26, !llvm.loop !64

get_selector_style_prop.exit.i18:                 ; preds = %.lr.ph63.i.i26, %30
  %.sroa.0.0.copyload.i.i19 = load ptr, ptr %4, align 8, !tbaa !37
  br label %lv_obj_get_style_color_filter_opa.exit

.thread.i.i22:                                    ; preds = %45, %38, %35
  %48 = tail call ptr @lv_style_prop_get_default(i8 noundef zeroext 98) #9
  br label %lv_obj_get_style_color_filter_opa.exit

lv_obj_get_style_color_filter_opa.exit:           ; preds = %get_selector_style_prop.exit.i18, %.thread.i.i22
  %.sroa.0.0.i.i20 = phi ptr [ %.sroa.0.0.copyload.i.i19, %get_selector_style_prop.exit.i18 ], [ %48, %.thread.i.i22 ]
  call void @llvm.lifetime.end.p0(i64 8, ptr nonnull %4) #9
  %49 = ptrtoint ptr %.sroa.0.0.i.i20 to i64
  %50 = trunc i64 %49 to i8
  %.not16 = icmp eq i8 %50, 0
  br i1 %.not16, label %56, label %51

51:                                               ; preds = %lv_obj_get_style_color_filter_opa.exit
  %52 = load ptr, ptr %.sroa.0.0.i.i, align 8, !tbaa !111
  %53 = ptrtoint ptr %2 to i64
  %.sroa.011.0.extract.trunc = trunc i64 %53 to i24
  %54 = tail call i24 %52(ptr noundef nonnull %.sroa.0.0.i.i, i24 %.sroa.011.0.extract.trunc, i8 noundef zeroext %50) #9
  %.sroa.011.0.insert.ext = zext i24 %54 to i64
  %.sroa.011.0.insert.mask = and i64 %53, -16777216
  %.sroa.011.0.insert.insert = or disjoint i64 %.sroa.011.0.insert.mask, %.sroa.011.0.insert.ext
  %55 = inttoptr i64 %.sroa.011.0.insert.insert to ptr
  br label %56

56:                                               ; preds = %lv_obj_get_style_color_filter_dsc.exit, %28, %51, %lv_obj_get_style_color_filter_opa.exit, %3
  %.sroa.013.0 = phi ptr [ %2, %3 ], [ %2, %28 ], [ %2, %lv_obj_get_style_color_filter_dsc.exit ], [ %55, %51 ], [ %2, %lv_obj_get_style_color_filter_opa.exit ]
  ret ptr %.sroa.013.0
}